; Function Attrs: nounwind uwtable
define hidden noundef zeroext i1 @b2WakeBody(ptr noundef %0, ptr noundef readonly captures(none) %1) local_unnamed_addr #0 {
  %3 = getelementptr inbounds nuw i8, ptr %1, i64 40
  %4 = load i32, ptr %3, align 8, !tbaa !19
  %5 = icmp sgt i32 %4, 2
  br i1 %5, label %6, label %7

6:                                                ; preds = %2
  tail call void @b2WakeSolverSet(ptr noundef %0, i32 noundef %4) #10
  br label %7

7:                                                ; preds = %2, %6
  ret i1 %5
}